target datalayout = "e-m:e-p270:32:32-p271:32:32-p272:64:64-i64:64-i128:128-f80:128-n8:16:32:64-S128"
target triple = "x86_64-pc-linux-gnu"

@stderr = external global ptr, align 8
@.str.10 = private unnamed_addr constant [60 x i8] c"libunwind: _Unwind_SetGR(context=%p, reg=%d, value=0x%0lx)\0A\00", align 1

; Function Attrs: uwtable
define dso_local void @_Unwind_SetGR(ptr noundef %0, i32 noundef %1, i64 noundef %2) #0 {
  %4 = alloca ptr, align 8
  %5 = alloca i32, align 4
  %6 = alloca i64, align 8
  %7 = alloca ptr, align 8
  store ptr %0, ptr %4, align 8, !tbaa !31
  store i32 %1, ptr %5, align 4, !tbaa !15
  store i64 %2, ptr %6, align 8, !tbaa !25
  br label %8

8:                                                ; preds = %3
  %9 = call zeroext i1 @logAPIs()
  br i1 %9, label %10, label %20

10:                                               ; preds = %8
  br label %11

11:                                               ; preds = %10
  %12 = load ptr, ptr @stderr, align 8, !tbaa !9
  %13 = load ptr, ptr %4, align 8, !tbaa !31
  %14 = load i32, ptr %5, align 4, !tbaa !15
  %15 = load i64, ptr %6, align 8, !tbaa !25
  %16 = call i32 (ptr, ptr, ...) @fprintf(ptr noundef %12, ptr noundef @.str.10, ptr noundef %13, i32 noundef %14, i64 noundef %15) #5
  %17 = load ptr, ptr @stderr, align 8, !tbaa !9
  %18 = call i32 @fflush(ptr noundef %17)
  br label %19

19:                                               ; preds = %11
  br label %20

20:                                               ; preds = %19, %8
  br label %21

21:                                               ; preds = %20
  call void @llvm.lifetime.start.p0(i64 8, ptr %7) #5
  %22 = load ptr, ptr %4, align 8, !tbaa !31
  store ptr %22, ptr %7, align 8, !tbaa !19
  %23 = load ptr, ptr %7, align 8, !tbaa !19
  %24 = load i32, ptr %5, align 4, !tbaa !15
  %25 = load i64, ptr %6, align 8, !tbaa !25
  %26 = call i32 @__unw_set_reg(ptr noundef %23, i32 noundef %24, i64 noundef %25)
  call void @llvm.lifetime.end.p0(i64 8, ptr %7) #5
  ret void
}