; Function Attrs: uwtable
define dso_local void @_Unwind_SetGR(ptr noundef %0, i32 noundef %1, i64 noundef %2) local_unnamed_addr #0 {
  %4 = tail call zeroext i1 @logAPIs()
  br i1 %4, label %5, label %10

5:                                                ; preds = %3
  %6 = load ptr, ptr @stderr, align 8, !tbaa !4
  %7 = tail call i32 (ptr, ptr, ...) @fprintf(ptr noundef %6, ptr noundef nonnull @.str.10, ptr noundef %0, i32 noundef %1, i64 noundef %2) #7
  %8 = load ptr, ptr @stderr, align 8, !tbaa !4
  %9 = tail call i32 @fflush(ptr noundef %8)
  br label %10

10:                                               ; preds = %3, %5
  %11 = tail call i32 @__unw_set_reg(ptr noundef %0, i32 noundef %1, i64 noundef %2)
  ret void
}